target datalayout = "e-m:e-p270:32:32-p271:32:32-p272:64:64-i64:64-i128:128-f80:128-n8:16:32:64-S128"
target triple = "x86_64-pc-linux-gnu"

%struct.KDF_PKCS12 = type { ptr, %struct.PROV_DIGEST, ptr, i64, ptr, i64, i64, i32 }
%struct.PROV_DIGEST = type { ptr, ptr, ptr }

@.str = private unnamed_addr constant [54 x i8] c"../openssl/providers/implementations/kdfs/pkcs12kdf.c\00", align 1

; Function Attrs: nounwind uwtable
define internal ptr @kdf_pkcs12_new(ptr noundef %0) #0 {
  %2 = alloca ptr, align 8
  %3 = alloca ptr, align 8
  %4 = alloca ptr, align 8
  %5 = alloca i32, align 4
  store ptr %0, ptr %3, align 8, !tbaa !3
  call void @llvm.lifetime.start.p0(i64 8, ptr %4) #6
  %6 = call i32 @ossl_prov_is_running()
  %7 = icmp ne i32 %6, 0
  br i1 %7, label %9, label %8

8:                                                ; preds = %1
  store ptr null, ptr %2, align 8
  store i32 1, ptr %5, align 4
  br label %19

9:                                                ; preds = %1
  %10 = call noalias ptr @CRYPTO_zalloc(i64 noundef 80, ptr noundef @.str, i32 noundef 144)
  store ptr %10, ptr %4, align 8, !tbaa !3
  %11 = load ptr, ptr %4, align 8, !tbaa !3
  %12 = icmp eq ptr %11, null
  br i1 %12, label %13, label %14

13:                                               ; preds = %9
  store ptr null, ptr %2, align 8
  store i32 1, ptr %5, align 4
  br label %19

14:                                               ; preds = %9
  %15 = load ptr, ptr %3, align 8, !tbaa !3
  %16 = load ptr, ptr %4, align 8, !tbaa !3
  %17 = getelementptr inbounds nuw %struct.KDF_PKCS12, ptr %16, i32 0, i32 0
  store ptr %15, ptr %17, align 8, !tbaa !7
  %18 = load ptr, ptr %4, align 8, !tbaa !3
  store ptr %18, ptr %2, align 8
  store i32 1, ptr %5, align 4
  br label %19

19:                                               ; preds = %14, %13, %8
  call void @llvm.lifetime.end.p0(i64 8, ptr %4) #6
  %20 = load ptr, ptr %2, align 8
  ret ptr %20
}